(lp0
S'Joint_Torque={-3939,-17594.2,-25734.8,-1529.28,-1658.88,-1918.08}'
p1
aS'Joint_Torque={-3939,-17725.5,-25734.8,-1632.96,-1710.72,-1866.24}'
p2
aS'Joint_Torque={-3939,-17725.5,-25866.1,-1477.44,-1710.72,-1788.48}'
p3
aS'Joint_Torque={-3939,-17725.5,-25734.8,-1477.44,-1684.8,-1762.56}'
p4
aS'Joint_Torque={-3807.7,-17725.5,-25997.4,-1477.44,-1710.72,-1866.24}'
p5
aS'Joint_Torque={-3807.7,-17594.2,-25997.4,-1503.36,-1684.8,-1866.24}'
p6
aS'Joint_Torque={-3807.7,-17856.8,-25603.5,-1503.36,-1710.72,-1995.84}'
p7
aS'Joint_Torque={-3807.7,-17725.5,-25997.4,-1581.12,-1710.72,-1918.08}'
p8
aS'Joint_Torque={-3807.7,-17725.5,-25734.8,-1503.36,-1710.72,-1814.4}'
p9
aS'Joint_Torque={-3807.7,-17725.5,-25866.1,-1555.2,-1736.64,-1866.24}'
p10
aS'Joint_Torque={-3939,-17856.8,-25866.1,-1503.36,-1684.8,-1918.08}'
p11
aS'Joint_Torque={-3807.7,-17725.5,-25866.1,-1451.52,-1684.8,-1918.08}'
p12
aS'Joint_Torque={-3807.7,-17594.2,-25866.1,-1451.52,-1736.64,-1892.16}'
p13
aS'Joint_Torque={-3807.7,-17725.5,-25734.8,-1581.12,-1710.72,-1840.32}'
p14
aS'Joint_Torque={-3807.7,-17725.5,-25734.8,-1555.2,-1632.96,-1969.92}'
p15
aS'Joint_Torque={-3676.4,-17594.2,-25997.4,-1529.28,-1658.88,-1866.24}'
p16
aS'Joint_Torque={-3939,-17594.2,-25997.4,-1503.36,-1684.8,-1840.32}'
p17
aS'Joint_Torque={-3807.7,-17594.2,-25734.8,-1581.12,-1684.8,-1814.4}'
p18
aS'Joint_Torque={-3807.7,-17725.5,-25866.1,-1581.12,-1710.72,-1840.32}'
p19
aS'Joint_Torque={-3939,-17594.2,-25997.4,-1529.28,-1736.64,-1892.16}'
p20
aS'Joint_Torque={-3939,-17725.5,-25734.8,-1477.44,-1684.8,-1892.16}'
p21
aS'Joint_Torque={-3807.7,-17725.5,-25866.1,-1477.44,-1710.72,-1814.4}'
p22
aS'Joint_Torque={-3807.7,-17594.2,-25866.1,-1451.52,-1684.8,-1840.32}'
p23
aS'Joint_Torque={-3807.7,-17594.2,-25866.1,-1477.44,-1684.8,-1918.08}'
p24
aS'Joint_Torque={-3807.7,-17594.2,-25866.1,-1581.12,-1684.8,-1892.16}'
p25
aS'Joint_Torque={-3939,-17725.5,-25734.8,-1503.36,-1684.8,-1840.32}'
p26
aS'Joint_Torque={-3807.7,-17725.5,-25734.8,-1555.2,-1788.48,-1814.4}'
p27
aS'Joint_Torque={-3939,-17725.5,-25866.1,-1451.52,-1658.88,-1892.16}'
p28
aS'Joint_Torque={-3807.7,-17725.5,-25997.4,-1529.28,-1658.88,-1918.08}'
p29
aS'Joint_Torque={-3939,-17725.5,-25734.8,-1529.28,-1762.56,-1788.48}'
p30
aS'Joint_Torque={-3807.7,-17594.2,-25866.1,-1451.52,-1710.72,-1892.16}'
p31
aS'Joint_Torque={-3807.7,-17594.2,-25866.1,-1477.44,-1736.64,-1840.32}'
p32
aS'Joint_Torque={-3807.7,-17856.8,-25866.1,-1477.44,-1710.72,-1944}'
p33
aS'Joint_Torque={-3807.7,-17725.5,-25997.4,-1555.2,-1658.88,-1892.16}'
p34
aS'Joint_Torque={-3939,-17725.5,-25997.4,-1477.44,-1710.72,-1892.16}'
p35
aS'Joint_Torque={-3807.7,-17725.5,-25866.1,-1477.44,-1710.72,-1840.32}'
p36
aS'Joint_Torque={-3807.7,-17725.5,-25866.1,-1451.52,-1684.8,-1892.16}'
p37
aS'Joint_Torque={-3807.7,-17725.5,-25866.1,-1529.28,-1684.8,-1840.32}'
p38
aS'Joint_Torque={-3807.7,-17725.5,-25997.4,-1503.36,-1684.8,-1762.56}'
p39
aS'Joint_Torque={-3939,-17594.2,-25866.1,-1503.36,-1684.8,-1840.32}'
p40
aS'Joint_Torque={-3939,-17725.5,-26128.7,-1555.2,-1684.8,-1866.24}'
p41
aS'Joint_Torque={-3939,-17594.2,-25866.1,-1529.28,-1684.8,-1995.84}'
p42
aS'Joint_Torque={-3939,-17725.5,-25866.1,-1555.2,-1684.8,-1892.16}'
p43
aS'Joint_Torque={-3939,-17725.5,-25734.8,-1503.36,-1684.8,-1866.24}'
p44
aS'Joint_Torque={-3939,-17725.5,-25866.1,-1503.36,-1710.72,-1892.16}'
p45
aS'Joint_Torque={-3807.7,-17725.5,-25866.1,-1451.52,-1736.64,-1840.32}'
p46
aS'Joint_Torque={-3807.7,-17725.5,-25866.1,-1503.36,-1684.8,-1866.24}'
p47
aS'Joint_Torque={-3807.7,-17725.5,-25866.1,-1555.2,-1684.8,-1944}'
p48
aS'Joint_Torque={-3807.7,-17594.2,-25866.1,-1503.36,-1710.72,-1969.92}'
p49
aS'Joint_Torque={-3807.7,-17725.5,-25734.8,-1529.28,-1684.8,-1840.32}'
p50
aS'Joint_Torque={-3939,-17725.5,-25734.8,-1477.44,-1684.8,-1892.16}'
p51
aS'Joint_Torque={-3939,-17725.5,-25866.1,-1529.28,-1710.72,-1840.32}'
p52
aS'Joint_Torque={-3807.7,-17725.5,-25997.4,-1529.28,-1710.72,-1866.24}'
p53
aS'Joint_Torque={-3939,-17725.5,-25866.1,-1632.96,-1710.72,-1918.08}'
p54
aS'Joint_Torque={-3807.7,-17856.8,-25997.4,-1477.44,-1788.48,-1840.32}'
p55
aS'Joint_Torque={-3807.7,-17725.5,-25866.1,-1529.28,-1710.72,-1762.56}'
p56
aS'Joint_Torque={-3807.7,-17594.2,-25866.1,-1581.12,-1710.72,-1918.08}'
p57
aS'Joint_Torque={-3939,-17725.5,-25997.4,-1529.28,-1658.88,-1814.4}'
p58
aS'Joint_Torque={-3939,-17725.5,-25997.4,-1581.12,-1710.72,-1892.16}'
p59
aS'Joint_Torque={-3939,-17725.5,-25866.1,-1555.2,-1684.8,-1866.24}'
p60
aS'Joint_Torque={-3807.7,-17725.5,-25997.4,-1451.52,-1814.4,-1814.4}'
p61
aS'Joint_Torque={-3807.7,-17725.5,-25866.1,-1477.44,-1684.8,-1814.4}'
p62
aS'Joint_Torque={-3807.7,-17725.5,-25866.1,-1529.28,-1658.88,-1918.08}'
p63
aS'Joint_Torque={-3807.7,-17594.2,-25734.8,-1503.36,-1710.72,-1944}'
p64
aS'Joint_Torque={-3939,-17725.5,-25997.4,-1477.44,-1762.56,-1866.24}'
p65
aS'Joint_Torque={-3807.7,-17725.5,-25734.8,-1503.36,-1684.8,-1814.4}'
p66
aS'Joint_Torque={-3807.7,-17725.5,-25866.1,-1529.28,-1710.72,-1840.32}'
p67
aS'Joint_Torque={-3939,-17594.2,-25997.4,-1529.28,-1710.72,-1866.24}'
p68
aS'Joint_Torque={-3807.7,-17725.5,-25866.1,-1373.76,-1658.88,-1840.32}'
p69
aS'Joint_Torque={-3807.7,-17725.5,-25734.8,-1555.2,-1684.8,-1892.16}'
p70
aS'Joint_Torque={-3939,-17856.8,-25866.1,-1451.52,-1710.72,-1866.24}'
p71
aS'Joint_Torque={-3807.7,-17725.5,-25866.1,-1477.44,-1710.72,-1892.16}'
p72
aS'Joint_Torque={-3807.7,-17856.8,-26128.7,-1555.2,-1684.8,-1892.16}'
p73
aS'Joint_Torque={-3807.7,-17725.5,-25997.4,-1451.52,-1710.72,-1814.4}'
p74
aS'Joint_Torque={-3807.7,-17725.5,-25866.1,-1503.36,-1710.72,-1814.4}'
p75
aS'Joint_Torque={-3939,-17594.2,-25866.1,-1503.36,-1684.8,-1892.16}'
p76
aS'Joint_Torque={-3807.7,-17725.5,-25997.4,-1451.52,-1762.56,-1918.08}'
p77
aS'Joint_Torque={-3939,-17594.2,-25866.1,-1529.28,-1684.8,-1892.16}'
p78
aS'Joint_Torque={-3939,-17594.2,-25734.8,-1477.44,-1684.8,-1866.24}'
p79
aS'Joint_Torque={-3939,-17725.5,-25866.1,-1555.2,-1788.48,-1918.08}'
p80
aS'Joint_Torque={-3939,-17594.2,-25866.1,-1555.2,-1658.88,-1866.24}'
p81
aS'Joint_Torque={-3676.4,-17594.2,-26128.7,-1503.36,-1684.8,-1944}'
p82
aS'Joint_Torque={-3939,-17594.2,-25866.1,-1529.28,-1710.72,-1892.16}'
p83
aS'Joint_Torque={-3807.7,-17725.5,-25734.8,-1581.12,-1710.72,-1788.48}'
p84
aS'Joint_Torque={-3807.7,-17725.5,-25997.4,-1503.36,-1710.72,-1788.48}'
p85
aS'Joint_Torque={-3807.7,-17594.2,-25866.1,-1425.6,-1710.72,-1918.08}'
p86
aS'Joint_Torque={-3807.7,-17725.5,-25997.4,-1503.36,-1632.96,-1918.08}'
p87
aS'Joint_Torque={-3807.7,-17725.5,-25866.1,-1503.36,-1736.64,-1892.16}'
p88
aS'Joint_Torque={-3807.7,-17725.5,-25997.4,-1477.44,-1736.64,-1788.48}'
p89
aS'Joint_Torque={-3939,-17725.5,-25997.4,-1529.28,-1710.72,-1866.24}'
p90
aS'Joint_Torque={-3807.7,-17725.5,-25734.8,-1581.12,-1684.8,-1918.08}'
p91
aS'Joint_Torque={-3807.7,-17594.2,-25997.4,-1555.2,-1710.72,-1840.32}'
p92
aS'Joint_Torque={-3807.7,-17725.5,-25866.1,-1477.44,-1684.8,-1840.32}'
p93
aS'Joint_Torque={-3807.7,-17594.2,-25866.1,-1529.28,-1684.8,-1892.16}'
p94
aS'Joint_Torque={-3807.7,-17725.5,-25866.1,-1477.44,-1658.88,-1788.48}'
p95
aS'Joint_Torque={-3807.7,-17725.5,-25866.1,-1451.52,-1762.56,-1814.4}'
p96
aS'Joint_Torque={-3807.7,-17856.8,-26128.7,-1503.36,-1736.64,-1866.24}'
p97
aS'Joint_Torque={-3807.7,-17594.2,-25866.1,-1477.44,-1710.72,-1866.24}'
p98
aS'Joint_Torque={-3807.7,-17594.2,-25997.4,-1529.28,-1658.88,-1788.48}'
p99
a.